; Function Attrs: nounwind sspstrong uwtable
define internal i64 @riscv_cpu_get_pc(ptr noundef %cs) #3 {
entry:
  %call.i = tail call ptr @object_dynamic_cast_assert(ptr noundef %cs, ptr noundef nonnull @.str.250, ptr noundef nonnull @.str.282, i32 noundef 46, ptr noundef nonnull @__func__.RISCV_CPU) #14
  %xl = getelementptr inbounds nuw i8, ptr %call.i, i64 15200
  %0 = load i32, ptr %xl, align 16
  %cmp = icmp eq i32 %0, 1
  %pc = getelementptr inbounds nuw i8, ptr %call.i, i64 14832
  %1 = load i64, ptr %pc, align 16
  %and = and i64 %1, 4294967295
  %retval.0 = select i1 %cmp, i64 %and, i64 %1
  ret i64 %retval.0
}